; Function Attrs: nounwind uwtable
define dso_local i32 @get_user_info(ptr noundef writeonly captures(none) %0) local_unnamed_addr #0 {
  %2 = alloca ptr, align 8
  call void @llvm.lifetime.start.p0(i64 8, ptr nonnull %2) #11
  %3 = tail call i32 @geteuid() #11
  %4 = call ptr @get_user_name(ptr noundef nonnull %2) #11
  %.not = icmp eq ptr %4, null
  br i1 %.not, label %5, label %7

5:                                                ; preds = %1
  %6 = load ptr, ptr %2, align 8
  call void (ptr, ...) @pg_fatal(ptr noundef nonnull @.str.6, ptr noundef %6) #14
  unreachable

7:                                                ; preds = %1
  %8 = call ptr @pg_strdup(ptr noundef nonnull %4) #11
  store ptr %8, ptr %0, align 8
  call void @llvm.lifetime.end.p0(i64 8, ptr nonnull %2) #11
  ret i32 %3
}